; Function Attrs: mustprogress uwtable
define noalias noundef nonnull ptr @_Z23coco_string_create_charPKw(ptr noundef readonly %0) local_unnamed_addr #2 {
  %.not.i = icmp eq ptr %0, null
  br i1 %.not.i, label %_Z18coco_string_lengthPKw.exit, label %2

2:                                                ; preds = %1
  %3 = tail call i64 @wcslen(ptr noundef nonnull %0) #24
  %4 = trunc i64 %3 to i32
  br label %_Z18coco_string_lengthPKw.exit

_Z18coco_string_lengthPKw.exit:                   ; preds = %1, %2
  %.0.i = phi i32 [ %4, %2 ], [ 0, %1 ]
  %5 = add nsw i32 %.0.i, 1
  %6 = sext i32 %5 to i64
  %7 = tail call noalias noundef nonnull ptr @_Znam(i64 noundef %6) #21
  %8 = icmp sgt i32 %.0.i, 0
  br i1 %8, label %.lr.ph.preheader, label %._crit_edge

.lr.ph.preheader:                                 ; preds = %_Z18coco_string_lengthPKw.exit
  %wide.trip.count = zext nneg i32 %.0.i to i64
  br label %.lr.ph

.lr.ph:                                           ; preds = %.lr.ph.preheader, %.lr.ph
  %indvars.iv = phi i64 [ 0, %.lr.ph.preheader ], [ %indvars.iv.next, %.lr.ph ]
  %9 = getelementptr inbounds i32, ptr %0, i64 %indvars.iv
  %10 = load i32, ptr %9, align 4
  %11 = trunc i32 %10 to i8
  %12 = getelementptr inbounds i8, ptr %7, i64 %indvars.iv
  store i8 %11, ptr %12, align 1
  %indvars.iv.next = add nuw nsw i64 %indvars.iv, 1
  %exitcond.not = icmp eq i64 %indvars.iv.next, %wide.trip.count
  br i1 %exitcond.not, label %._crit_edge, label %.lr.ph, !llvm.loop !13

._crit_edge:                                      ; preds = %.lr.ph, %_Z18coco_string_lengthPKw.exit
  %13 = sext i32 %.0.i to i64
  %14 = getelementptr inbounds i8, ptr %7, i64 %13
  store i8 0, ptr %14, align 1
  ret ptr %7
}